(dp0
S'pow1'
p1
(lp2
V101629_kd.mod
p3
aV101629_kdrca1.mod
p4
aV101629_km.mod
p5
aV102288_IMminret.mod
p6
aV102288_IMmintau.mod
p7
aV106551_kdrca1.mod
p8
aV108458_Kv.mod
p9
aV108459_km.mod
p10
aV108459_kv.mod
p11
aV110560_potassium.mod
p12
aV112546_kdrca1.mod
p13
aV112546_km.mod
p14
aV112685_Golgi_KM.mod
p15
aV112834_kir.mod
p16
aV113732_km.mod
p17
aV113997_IKM.mod
p18
aV114355_G_kdr.mod
p19
aV114355_M_kdr.mod
p20
aV114359_km.mod
p21
aV114359_kv.mod
p22
aV114394_Km.mod
p23
aV114394_Kv1.mod
p24
aV114394_kv.mod
p25
aV114665_kdrmt.mod
p26
aV114685_KDRf.mod
p27
aV116053_km.mod
p28
aV116053_kv.mod
p29
aV116084_kdrca1.mod
p30
aV116094_kM.mod
p31
aV116096_km.mod
p32
aV116096_kv.mod
p33
aV116835_GRC_KIR.mod
p34
aV116835_GRC_KM.mod
p35
aV117207_kv.mod
p36
aV118986_kdrca1.mod
p37
aV118986_kmquad.mod
p38
aV118986_kmtwt.mod
p39
aV119266_km.mod
p40
aV119283_kdrca1.mod
p41
aV121060_chan_KIR.mod
p42
aV121259_kdrca1.mod
p43
aV121259_kdrca12.mod
p44
aV123623_IM_cortex.mod
p45
aV123815_km.mod
p46
aV123897_km.mod
p47
aV123897_kv.mod
p48
aV124043_km.mod
p49
aV124063_Rod_Kx.mod
p50
aV124291_kdrca1.mod
p51
aV125857_kdr.mod
p52
aV126637_KM.mod
p53
aV126637_KMcvode.mod
p54
aV126637_Kh.mod
p55
aV126637_Khcvode.mod
p56
aV126776_kdrca1.mod
p57
aV126814_kdrca1.mod
p58
aV126814_km.mod
p59
aV127021_Golgi_KM.mod
p60
aV127305_kdrca1.mod
p61
aV127351_kdr.mod
p62
aV127995_kdrmt.mod
p63
aV135787_im.mod
p64
aV135787_km.mod
p65
aV135787_kv.mod
p66
aV135839_im.mod
p67
aV135839_km.mod
p68
aV135839_kv.mod
p69
aV135898_kv.mod
p70
aV135902_CA1ikdr.mod
p71
aV135902_kdrbwb.mod
p72
aV135902_kdrca1.mod
p73
aV135902_kdrolmkop.mod
p74
aV135902_kdrpr.mod
p75
aV135902_kdrpyrkop.mod
p76
aV135903_CA1ikdr.mod
p77
aV135903_kdrbwb.mod
p78
aV135903_kdrca1.mod
p79
aV135903_kdrolmkop.mod
p80
aV135903_kdrpr.mod
p81
aV135903_kdrpyrkop.mod
p82
aV136309_kdr_Yu.mod
p83
aV136715_Kv1.mod
p84
aV136715_kv.mod
p85
aV136803_km.mod
p86
aV137259_kd.mod
p87
aV137259_kdrca1.mod
p88
aV137259_km.mod
p89
aV138205_kdrca1.mod
p90
aV138321_km.mod
p91
aV138321_kv.mod
p92
aV139421_kdrolmkop.mod
p93
aV139421_kdrpr.mod
p94
aV139421_kdrpyrkop.mod
p95
aV139653_Im.mod
p96
aV139653_SKv3_1.mod
p97
aV139654_kml.mod
p98
aV139656_GRC_KIR.mod
p99
aV139656_GRC_KM.mod
p100
aV139656_Golgi_KM.mod
p101
aV139883_GRC_KIR.mod
p102
aV139883_GRC_KM.mod
p103
aV140038_kdr7.mod
p104
aV140828_inwardrect.mod
p105
aV140828_km.mod
p106
aV140828_kv.mod
p107
aV141273_km.mod
p108
aV141273_kv.mod
p109
aV143442_kv.mod
p110
aV143604_im.mod
p111
aV143604_km.mod
p112
aV143604_kv.mod
p113
aV143671_kdrRL.mod
p114
aV143719_kdr.mod
p115
aV143719_km.mod
p116
aV144054_kdrmt.mod
p117
aV144089_km.mod
p118
aV144376_IKM.mod
p119
aV144385_km.mod
p120
aV144385_kv.mod
p121
aV144392_kdrca1.mod
p122
aV144392_km.mod
p123
aV144401_km.mod
p124
aV144450_km.mod
p125
aV144482_km.mod
p126
aV144482_kv.mod
p127
aV144490_km.mod
p128
aV144490_km_v2.mod
p129
aV144520_ikd.mod
p130
aV144520_ito.mod
p131
aV144526_Kv.mod
p132
aV144526_Kv7.mod
p133
aV144541_kdrca1.mod
p134
aV144541_km.mod
p135
aV144553_kvz_nature.mod
p136
aV144570_kdrmt.mod
p137
aV144579_km.mod
p138
aV144589_kdrca1.mod
p139
aV144976_kdrca1.mod
p140
aV145672_migliore_kdrca1.mod
p141
aV146026_IKM.mod
p142
aV146026_kfast.mod
p143
aV146030_Kdr_ChannelML.mod
p144
aV146376_kdrca1.mod
p145
aV146509_kdrca1.mod
p146
aV147218_kdr.mod
p147
aV147514_km.mod
p148
aV147514_kv.mod
p149
aV147538_kdrca1.mod
p150
aV147757_kdr.mod
p151
aV147757_km.mod
p152
aV147867_borgkm.mod
p153
aV148094_kdrca1.mod
p154
aV148094_kv72wt73wt.mod
p155
aV148094_kv72wt73wt72R213Q.mod
p156
aV148094_kv72wt73wt72R213W.mod
p157
aV148644_kdrca1.mod
p158
aV149000_KM.mod
p159
aV149000_Kh.mod
p160
aV149100_SKv3_1.mod
p161
aV149415_kdrmt.mod
p162
aV149739_KDRmt.mod
p163
aV149739_kM.mod
p164
aV150239_kdr.mod
p165
aV150240_IM.mod
p166
aV150284_kir.mod
p167
aV150288_kdrca1.mod
p168
aV150288_kdrca1DA.mod
p169
aV150446_KdrTraub1994ax.mod
p170
aV150446_KdrTraub1994sd.mod
p171
aV150538_km.mod
p172
aV150538_kv.mod
p173
aV150551_kdrca1.mod
p174
aV150556_Kirm.mod
p175
aV150556_Km.mod
p176
aV150621_Kirm.mod
p177
aV150621_Km.mod
p178
aV151126_kdr.mod
p179
aV151126_kdrax.mod
p180
aV151126_km.mod
p181
aV151443_K_No.mod
p182
aV151458_kir.mod
p183
aV151460_KDR.mod
p184
aV151460_Kv31.mod
p185
aV151681_kdrmt.mod
p186
aV153196_km.mod
p187
aV153196_kv.mod
p188
aV153280_ch_Kdrp.mod
p189
aV154732_kdrca1.mod
p190
aV154732_km.mod
p191
aV155157_IM_cortex.mod
p192
aV155157_kM.mod
p193
aV155735_KMnew2.mod
p194
aV155735_Kh1.mod
p195
aV155735_Kh2.mod
p196
aV155735_kpkj2.mod
p197
aV155735_kpkjslow.mod
p198
aV156120_km.mod
p199
aV156780_Im.mod
p200
aV156780_SKv3_1.mod
p201
aV157339_kdrca1.mod
p202
aV168591_kdrmt.mod
p203
aV168858_km.mod
p204
aV168858_kvz_nature.mod
p205
aV168874_kdrca1.mod
p206
aV168874_km.mod
p207
aV169457_Im.mod
p208
aV169457_SKv3_1.mod
p209
aV170030_kdrca1.mod
p210
aV170030_kv72wt73wt.mod
p211
aV170030_kv72wt73wtR201C.mod
p212
aV17664_KM.mod
p213
aV17664_Kh.mod
p214
aV180370_kdrRL.mod
p215
aV180373_Im.mod
p216
aV180373_SKv3_1.mod
p217
aV180789_km.mod
p218
aV180789_kpkj2.mod
p219
aV180789_kpkjslow.mod
p220
aV180789_kv1.mod
p221
aV181967_borgkm.mod
p222
aV181967_kd.mod
p223
aV181967_kdrca1.mod
p224
aV181967_km.mod
p225
aV181967_km2.mod
p226
aV182134_ca1ikdr.mod
p227
aV182134_kdrbwb.mod
p228
aV182134_kdrca1.mod
p229
aV182134_kdrolmkop.mod
p230
aV182134_kdrpr.mod
p231
aV182134_kdrpyrkop.mod
p232
aV182797_IMminret.mod
p233
aV182797_IMmintau.mod
p234
aV183949_kdrRL.mod
p235
aV183949_km_hu.mod
p236
aV184139_Kdr.mod
p237
aV184145_Im.mod
p238
aV184145_Im_v2.mod
p239
aV184145_Kv3_1.mod
p240
aV184148_Im.mod
p241
aV184148_Im_v2.mod
p242
aV184148_Kv3_1.mod
p243
aV184152_Im.mod
p244
aV184152_Im_v2.mod
p245
aV184152_Kv3_1.mod
p246
aV184168_Im.mod
p247
aV184168_Im_v2.mod
p248
aV184168_Kv3_1.mod
p249
aV184178_Im.mod
p250
aV184178_Im_v2.mod
p251
aV184178_Kv3_1.mod
p252
aV184180_Im.mod
p253
aV184180_Im_v2.mod
p254
aV184180_Kv3_1.mod
p255
aV184182_Im.mod
p256
aV184182_Im_v2.mod
p257
aV184182_Kv3_1.mod
p258
aV184184_Im.mod
p259
aV184184_Im_v2.mod
p260
aV184184_Kv3_1.mod
p261
aV184196_Im.mod
p262
aV184196_Im_v2.mod
p263
aV184196_Kv3_1.mod
p264
aV184297_Im.mod
p265
aV184297_Im_v2.mod
p266
aV184297_Kv3_1.mod
p267
aV184303_Im.mod
p268
aV184303_Im_v2.mod
p269
aV184303_Kv3_1.mod
p270
aV184310_Im.mod
p271
aV184310_Im_v2.mod
p272
aV184310_Kv3_1.mod
p273
aV184316_Im.mod
p274
aV184316_Im_v2.mod
p275
aV184316_Kv3_1.mod
p276
aV184319_Im.mod
p277
aV184319_Im_v2.mod
p278
aV184319_Kv3_1.mod
p279
aV184323_Im.mod
p280
aV184323_Im_v2.mod
p281
aV184323_Kv3_1.mod
p282
aV184325_Im.mod
p283
aV184325_Im_v2.mod
p284
aV184325_Kv3_1.mod
p285
aV184327_Im.mod
p286
aV184327_Im_v2.mod
p287
aV184327_Kv3_1.mod
p288
aV184331_Im.mod
p289
aV184331_Im_v2.mod
p290
aV184331_Kv3_1.mod
p291
aV184337_Im.mod
p292
aV184337_Im_v2.mod
p293
aV184337_Kv3_1.mod
p294
aV184339_Im.mod
p295
aV184339_Im_v2.mod
p296
aV184339_Kv3_1.mod
p297
aV184346_Im.mod
p298
aV184346_Im_v2.mod
p299
aV184346_Kv3_1.mod
p300
aV184348_Im.mod
p301
aV184348_Im_v2.mod
p302
aV184348_Kv3_1.mod
p303
aV184350_Im.mod
p304
aV184350_Im_v2.mod
p305
aV184350_Kv3_1.mod
p306
aV184352_Im.mod
p307
aV184352_Im_v2.mod
p308
aV184352_Kv3_1.mod
p309
aV185332_kfast.mod
p310
aV185355_Kir.mod
p311
aV185858_IKM.mod
p312
aV185858_kdr.mod
p313
aV185858_km.mod
p314
aV186977_km.mod
p315
aV187473_im.mod
p316
aV19696_kdrca1.mod
p317
aV20007_KdrM99SL.mod
p318
aV20007_KmM95.mod
p319
aV20212_Mykca.mod
p320
aV20212_borgkm.mod
p321
aV20212_kdrca1.mod
p322
aV20212_km.mod
p323
aV20212_kv.mod
p324
aV20756_km.mod
p325
aV22203_km.mod
p326
aV22203_kv.mod
p327
aV2488_km.mod
p328
aV2488_kv.mod
p329
aV2730_kM.mod
p330
aV2796_kdrca1.mod
p331
aV2937_borgkm.mod
p332
aV3167_kdrca1.mod
p333
aV3263_borgkm.mod
p334
aV32992_kdrca1.mod
p335
aV3434_khva.mod
p336
aV3434_klva.mod
p337
aV3493_kdr_moto.mod
p338
aV3648_kdrmt.mod
p339
aV3660_kdrneosup.mod
p340
aV37819_km.mod
p341
aV37819_kv.mod
p342
aV3800_ikr.mod
p343
aV3802_kxph.mod
p344
aV3808_im.mod
p345
aV3817_IM.mod
p346
aV39949_kir2.mod
p347
aV39949_ksi.mod
p348
aV43039_kdrmt.mod
p349
aV44050_kdrca1.mod
p350
aV45539_km.mod
p351
aV46839_grc_kir.mod
p352
aV46839_grg_km.mod
p353
aV48332_kpkj2.mod
p354
aV48332_kpkjslow.mod
p355
aV50210_kdrmt.mod
p356
aV51196_grc_kir.mod
p357
aV51196_grg_km.mod
p358
aV53451_km.mod
p359
aV53451_kv.mod
p360
aV53569_Kslow.mod
p361
aV53876_akfast.mod
p362
aV53876_kslow.mod
p363
aV54903_km.mod
p364
aV54903_kv.mod
p365
aV55035_kdrca1.mod
p366
aV64167_kdrca1.mod
p367
aV64195_km.mod
p368
aV64195_kv.mod
p369
aV64212_kdr.mod
p370
aV64228_Kx.mod
p371
aV64229_kM.mod
p372
aV71312_kdrca1.mod
p373
aV7386_kdrca1.mod
p374
aV74298_KDR.mod
p375
aV74298_Kv31.mod
p376
aV80769_Kv1.mod
p377
aV8115_IM.mod
p378
aV8210_kd3h5.mod
p379
aV83344_km.mod
p380
aV83344_kv.mod
p381
aV85112_kf.mod
p382
aV85112_ks.mod
p383
aV86537_kdr.mod
p384
aV87284_kdrca1.mod
p385
aV87473_ka.mod
p386
aV87535_kdrca1.mod
p387
aV93321_kd.mod
p388
aV95870_Kx.mod
p389
aV97263_kdrmt.mod
p390
aV9769_kdrca1.mod
p391
aV97860_kv2_simplehh.mod
p392
aV97874_kdrca1.mod
p393
aV97917_km.mod
p394
aV98005_kir2_ch.mod
p395
asS'pow4'
p396
(lp397
V112685_Golgi_KV.mod
p398
aV114685_PARAK75.mod
p399
aV115356_kdr.mod
p400
aV116835_GRC_KV.mod
p401
aV116956_emdk.mod
p402
aV121253_fastK.mod
p403
aV123815_Kaxon.mod
p404
aV123815_Kdend.mod
p405
aV123815_Ksoma.mod
p406
aV123927_kdr.mod
p407
aV124043_Kdr.mod
p408
aV124043_kdr2.mod
p409
aV124063_A2hh_k.mod
p410
aV124063_Rod_Kv.mod
p411
aV124291_kdr.mod
p412
aV125152_kdr.mod
p413
aV126637_Khh.mod
p414
aV126637_Khhcvode.mod
p415
aV127021_Golgi_KV.mod
p416
aV136026_kd.mod
p417
aV136309_kdr_Jonas.mod
p418
aV136309_kdr_Traub.mod
p419
aV138273_IKdrSM.mod
p420
aV139654_klt.mod
p421
aV139656_GRC_KV.mod
p422
aV139656_Golgi_KV.mod
p423
aV139883_GRC_KV.mod
p424
aV140462_IKt3.mod
p425
aV143100_KCNQ.mod
p426
aV144089_kdrD.mod
p427
aV144401_kdr.mod
p428
aV144482_kdr.mod
p429
aV144482_kdrsoma.mod
p430
aV144502_kdr.mod
p431
aV144523_fKdr.mod
p432
aV144523_sKdr.mod
p433
aV144579_kdr.mod
p434
aV144579_kdr_fs.mod
p435
aV149000_Khh.mod
p436
aV150024_fKdr.mod
p437
aV150024_sKdr.mod
p438
aV150288_kdrinter.mod
p439
aV151126_Kaxon.mod
p440
aV151126_Kdend.mod
p441
aV151126_Ksoma.mod
p442
aV151443_Kdr.mod
p443
aV151460_PARAK75.mod
p444
aV153280_ch_Kdrfast.mod
p445
aV153280_ch_Kdrslow.mod
p446
aV155057_kdr.mod
p447
aV155705_K_pyr_bk.mod
p448
aV155796_kdr.mod
p449
aV156120_K_pyr_bk.mod
p450
aV168858_kdr.mod
p451
aV17664_Khh.mod
p452
aV180789_khh.mod
p453
aV181967_Kaxon.mod
p454
aV181967_Kdend.mod
p455
aV181967_Ksoma.mod
p456
aV183949_KCNQ.mod
p457
aV185328_hhkchan.mod
p458
aV186977_K_pyr_bk.mod
p459
aV20756_kdr.mod
p460
aV28316_Kaxon.mod
p461
aV28316_Kdend.mod
p462
aV28316_Ksoma.mod
p463
aV3342_kd.mod
p464
aV3342_kd_v2.mod
p465
aV3434_khh.mod
p466
aV3793_kd.mod
p467
aV45539_kdr.mod
p468
aV45539_kdr_fs.mod
p469
aV46839_Grg_kv.mod
p470
aV51196_grg_kv.mod
p471
aV62266_B_DR.mod
p472
aV62284_B_DR.mod
p473
aV62284_KDR.mod
p474
aV62285_B_DR.mod
p475
aV62285_KDR.mod
p476
aV62673_kdersej.mod
p477
aV64228_Kv.mod
p478
aV8115_IKd_traub.mod
p479
aV82784_Kdr.mod
p480
aV82784_KdrIN.mod
p481
aV82849_kdr.mod
p482
aV97917_kdr.mod
p483
aV97917_kdr_fs.mod
p484
as.